; Function Attrs: nounwind sspstrong uwtable
define internal void @riscv_cpu_init(ptr noundef %obj) #3 {
entry:
  %call.i = tail call ptr @object_dynamic_cast_assert(ptr noundef %obj, ptr noundef nonnull @.str.250, ptr noundef nonnull @.str.282, i32 noundef 46, ptr noundef nonnull @__func__.RISCV_CPU) #14
  %ext_zicntr = getelementptr inbounds nuw i8, ptr %call.i, i64 15337
  store i8 1, ptr %ext_zicntr, align 1
  %call.i2 = tail call ptr @object_dynamic_cast_assert(ptr noundef %obj, ptr noundef nonnull @.str.250, ptr noundef nonnull @.str.282, i32 noundef 46, ptr noundef nonnull @__func__.RISCV_CPU) #14
  %ext_zihpm = getelementptr inbounds nuw i8, ptr %call.i2, i64 15344
  store i8 1, ptr %ext_zihpm, align 16
  ret void
}